target datalayout = "e-m:e-p270:32:32-p271:32:32-p272:64:64-i64:64-i128:128-f80:128-n8:16:32:64-S128"
target triple = "x86_64-pc-linux-gnu"

%class.OopHandle = type { ptr }
%class.JavaThread = type { %class.Thread, i8, %class.OopHandle, %class.OopHandle, %class.OopHandle, %class.OopHandle, %class.JavaFrameAnchor, ptr, %struct.JNIEnv_, ptr, ptr, ptr, ptr, ptr, ptr, ptr, ptr, %class.MemRegion, ptr, i8, ptr, ptr, ptr, i32, i32, %"struct.SafepointMechanism::ThreadData", ptr, ptr, i32, i32, i8, i8, i8, i8, i8, i8, i8, i32, i8, i32, i8, i8, i64, %union.anon, ptr, ptr, i64, i64, ptr, ptr, %class.StackOverflow, ptr, ptr, ptr, i32, i32, ptr, i32, i32, i32, ptr, ptr, i32, i64, i64, %class.StackWatermarks, %class.HandshakeState, ptr, i32, ptr, i32, i32, ptr, %class.Parker, ptr, ptr, %class.LockStack }
%class.Thread = type { %class.ThreadShadow.base, i64, [43 x i64], ptr, ptr, i32, ptr, i64, i64, %class.ThreadLocalAllocBuffer, i64, %class.ThreadHeapSampler, %class.ThreadStatisticalInfo, %class.JfrThreadLocal, ptr, ptr, ptr, ptr, ptr, ptr, i64, i32, i32, ptr, i32, i32, i32, i32, i8, ptr }
%class.ThreadShadow.base = type <{ ptr, ptr, ptr, i32 }>
%class.ThreadLocalAllocBuffer = type <{ ptr, ptr, ptr, ptr, ptr, i64, i64, i64, i64, i32, i32, i32, i32, i64, %class.AdaptiveWeightedAverage, [4 x i8] }>
%class.AdaptiveWeightedAverage = type { float, i32, i32, i8, float }
%class.ThreadHeapSampler = type { i64 }
%class.ThreadStatisticalInfo = type { i64, i64 }
%class.JfrThreadLocal = type <{ ptr, ptr, ptr, ptr, ptr, ptr, ptr, ptr, ptr, ptr, %class.RefCountHandle, i64, i64, i64, i64, i64, i64, i64, i64, i64, i64, i64, i32, i32, i32, i16, i8, i8, i8, i8, i8, [5 x i8] }>
%class.RefCountHandle = type { ptr }
%class.JavaFrameAnchor = type { ptr, ptr, ptr }
%struct.JNIEnv_ = type { ptr }
%class.MemRegion = type { ptr, i64 }
%"struct.SafepointMechanism::ThreadData" = type { i64, i64 }
%union.anon = type { ptr }
%class.StackOverflow = type { i32, ptr, ptr, ptr, ptr, ptr, ptr }
%class.StackWatermarks = type { ptr }
%class.HandshakeState = type <{ ptr, %class.FilterQueue, %class.Monitor, ptr, i8, i8, i8, [5 x i8] }>
%class.FilterQueue = type { ptr }
%class.Monitor = type { %class.Mutex }
%class.Mutex = type { ptr, %class.PlatformMonitor, ptr }
%class.PlatformMonitor = type { %class.PlatformMutex, %union.pthread_cond_t }
%class.PlatformMutex = type { %union.pthread_mutex_t }
%union.pthread_mutex_t = type { %struct.__pthread_mutex_s }
%struct.__pthread_mutex_s = type { i32, i32, i32, i32, i32, i16, i16, %struct.__pthread_internal_list }
%struct.__pthread_internal_list = type { ptr, ptr }
%union.pthread_cond_t = type { %struct.__pthread_cond_s }
%struct.__pthread_cond_s = type { %union.__atomic_wide_counter, %union.__atomic_wide_counter, [2 x i32], [2 x i32], i32, i32, [2 x i32] }
%union.__atomic_wide_counter = type { i64 }
%class.Parker = type { %class.PlatformParker }
%class.PlatformParker = type { i32, i32, [1 x %union.pthread_mutex_t], [2 x %union.pthread_cond_t] }
%class.LockStack = type { i32, i64, [8 x ptr] }
%class.Handle = type { ptr }
%class.frame = type { %union.anon.4, ptr, ptr, ptr, i32, i8, %union.anon.5, %union.anon.6 }
%union.anon.4 = type { ptr }
%union.anon.5 = type { ptr }
%union.anon.6 = type { ptr }
%class.RegisterMap = type <{ [609 x ptr], [10 x i64], i8, [7 x i8], ptr, %class.stackChunkHandle, i32, i8, i8, i8, i8 }>
%class.stackChunkHandle = type { %class.Handle }
%class.StackFrameStream = type <{ %class.frame, %class.RegisterMap, i8, [7 x i8] }>
%class.CodeBlob = type <{ ptr, ptr, ptr, i32, i32, i32, i32, i32, i32, i16, i16, i8, i8, [2 x i8] }>

@_ZN12StubRoutines25_call_stub_return_addressE = external global ptr, align 8

; Function Attrs: mustprogress nounwind uwtable
define linkonce_odr hidden noundef ptr @_ZNK6Handle3objEv(ptr noundef nonnull align 8 dereferenceable(8) %0) #1 comdat align 2 {
  %2 = alloca ptr, align 8
  store ptr %0, ptr %2, align 8
  %3 = load ptr, ptr %2, align 8
  %4 = getelementptr inbounds %class.Handle, ptr %3, i32 0, i32 0
  %5 = load ptr, ptr %4, align 8
  %6 = icmp eq ptr %5, null
  br i1 %6, label %7, label %8

7:                                                ; preds = %1
  br label %12

8:                                                ; preds = %1
  %9 = getelementptr inbounds %class.Handle, ptr %3, i32 0, i32 0
  %10 = load ptr, ptr %9, align 8
  %11 = load ptr, ptr %10, align 8
  br label %12

12:                                               ; preds = %8, %7
  %13 = phi ptr [ null, %7 ], [ %11, %8 ]
  ret ptr %13
}

; Function Attrs: mustprogress nounwind uwtable
define linkonce_odr hidden noundef ptr @_ZNK16stackChunkHandle3objEv(ptr noundef nonnull align 8 dereferenceable(8) %0) #1 comdat align 2 {
  %2 = alloca ptr, align 8
  store ptr %0, ptr %2, align 8
  %3 = load ptr, ptr %2, align 8
  %4 = call noundef ptr @_ZNK6Handle3objEv(ptr noundef nonnull align 8 dereferenceable(8) %3)
  ret ptr %4
}

; Function Attrs: mustprogress nounwind uwtable
define linkonce_odr hidden noundef ptr @_ZNK16stackChunkHandleclEv(ptr noundef nonnull align 8 dereferenceable(8) %0) #1 comdat align 2 {
  %2 = alloca ptr, align 8
  store ptr %0, ptr %2, align 8
  %3 = load ptr, ptr %2, align 8
  %4 = call noundef ptr @_ZNK16stackChunkHandle3objEv(ptr noundef nonnull align 8 dereferenceable(8) %3)
  ret ptr %4
}

; Function Attrs: mustprogress nounwind uwtable
define linkonce_odr hidden noundef zeroext i1 @_ZNK8CodeBlob14is_upcall_stubEv(ptr noundef nonnull align 8 dereferenceable(54) %0) #1 comdat align 2 {
  %2 = alloca ptr, align 8
  store ptr %0, ptr %2, align 8
  %3 = load ptr, ptr %2, align 8
  %4 = getelementptr inbounds %class.CodeBlob, ptr %3, i32 0, i32 11
  %5 = load i8, ptr %4, align 4
  %6 = icmp eq i8 %5, 11
  ret i1 %6
}

; Function Attrs: mustprogress nounwind uwtable
define linkonce_odr hidden noundef zeroext i1 @_ZN12StubRoutines20returns_to_call_stubEPh(ptr noundef %0) #1 comdat align 2 {
  %2 = alloca ptr, align 8
  store ptr %0, ptr %2, align 8
  %3 = load ptr, ptr %2, align 8
  %4 = load ptr, ptr @_ZN12StubRoutines25_call_stub_return_addressE, align 8
  %5 = icmp eq ptr %3, %4
  ret i1 %5
}

; Function Attrs: mustprogress nounwind uwtable
define linkonce_odr hidden noundef ptr @_ZNK5frame2pcEv(ptr noundef nonnull align 8 dereferenceable(56) %0) #1 comdat align 2 {
  %2 = alloca ptr, align 8
  store ptr %0, ptr %2, align 8
  %3 = load ptr, ptr %2, align 8
  %4 = getelementptr inbounds %class.frame, ptr %3, i32 0, i32 1
  %5 = load ptr, ptr %4, align 8
  ret ptr %5
}

; Function Attrs: mustprogress nounwind uwtable
define linkonce_odr hidden noundef ptr @_ZNK11RegisterMap6threadEv(ptr noundef nonnull align 8 dereferenceable(4983) %0) #1 comdat align 2 {
  %2 = alloca ptr, align 8
  store ptr %0, ptr %2, align 8
  %3 = load ptr, ptr %2, align 8
  %4 = getelementptr inbounds %class.RegisterMap, ptr %3, i32 0, i32 4
  %5 = load ptr, ptr %4, align 8
  ret ptr %5
}

; Function Attrs: mustprogress nounwind uwtable
define linkonce_odr hidden noundef zeroext i1 @_ZNK11RegisterMap7in_contEv(ptr noundef nonnull align 8 dereferenceable(4983) %0) #1 comdat align 2 {
  %2 = alloca ptr, align 8
  store ptr %0, ptr %2, align 8
  %3 = load ptr, ptr %2, align 8
  %4 = getelementptr inbounds %class.RegisterMap, ptr %3, i32 0, i32 5
  %5 = call noundef ptr @_ZNK16stackChunkHandleclEv(ptr noundef nonnull align 8 dereferenceable(8) %4)
  %6 = icmp ne ptr %5, null
  ret i1 %6
}

; Function Attrs: mustprogress nounwind uwtable
define linkonce_odr hidden noundef zeroext i1 @_ZNK11RegisterMap14process_framesEv(ptr noundef nonnull align 8 dereferenceable(4983) %0) #1 comdat align 2 {
  %2 = alloca ptr, align 8
  store ptr %0, ptr %2, align 8
  %3 = load ptr, ptr %2, align 8
  %4 = getelementptr inbounds %class.RegisterMap, ptr %3, i32 0, i32 8
  %5 = load i8, ptr %4, align 1
  %6 = trunc i8 %5 to i1
  ret i1 %6
}

; Function Attrs: mustprogress nounwind uwtable
define linkonce_odr hidden noundef zeroext i1 @_ZNK5frame20is_upcall_stub_frameEv(ptr noundef nonnull align 8 dereferenceable(56) %0) #1 comdat align 2 {
  %2 = alloca ptr, align 8
  store ptr %0, ptr %2, align 8
  %3 = load ptr, ptr %2, align 8
  %4 = getelementptr inbounds %class.frame, ptr %3, i32 0, i32 2
  %5 = load ptr, ptr %4, align 8
  %6 = icmp ne ptr %5, null
  br i1 %6, label %7, label %11

7:                                                ; preds = %1
  %8 = getelementptr inbounds %class.frame, ptr %3, i32 0, i32 2
  %9 = load ptr, ptr %8, align 8
  %10 = call noundef zeroext i1 @_ZNK8CodeBlob14is_upcall_stubEv(ptr noundef nonnull align 8 dereferenceable(54) %9)
  br label %11

11:                                               ; preds = %7, %1
  %12 = phi i1 [ false, %1 ], [ %10, %7 ]
  ret i1 %12
}

; Function Attrs: mustprogress nounwind uwtable
define linkonce_odr hidden noundef zeroext i1 @_ZNK5frame14is_entry_frameEv(ptr noundef nonnull align 8 dereferenceable(56) %0) #1 comdat align 2 {
  %2 = alloca ptr, align 8
  store ptr %0, ptr %2, align 8
  %3 = load ptr, ptr %2, align 8
  %4 = call noundef ptr @_ZNK5frame2pcEv(ptr noundef nonnull align 8 dereferenceable(56) %3)
  %5 = call noundef zeroext i1 @_ZN12StubRoutines20returns_to_call_stubEPh(ptr noundef %4)
  ret i1 %5
}

; Function Attrs: mustprogress nounwind uwtable
define linkonce_odr hidden void @_ZNK5frame6senderEP11RegisterMap(ptr dead_on_unwind noalias writable sret(%class.frame) align 8 %0, ptr noundef nonnull align 8 dereferenceable(56) %1, ptr noundef %2) #1 comdat align 2 {
  %4 = alloca ptr, align 8
  %5 = alloca ptr, align 8
  store ptr %1, ptr %4, align 8
  store ptr %2, ptr %5, align 8
  %6 = load ptr, ptr %4, align 8
  %7 = load ptr, ptr %5, align 8
  call void @_ZNK5frame10sender_rawEP11RegisterMap(ptr dead_on_unwind writable sret(%class.frame) align 8 %0, ptr noundef nonnull align 8 dereferenceable(56) %6, ptr noundef %7)
  %8 = load ptr, ptr %5, align 8
  %9 = call noundef zeroext i1 @_ZNK11RegisterMap14process_framesEv(ptr noundef nonnull align 8 dereferenceable(4983) %8)
  br i1 %9, label %10, label %16

10:                                               ; preds = %3
  %11 = load ptr, ptr %5, align 8
  %12 = call noundef zeroext i1 @_ZNK11RegisterMap7in_contEv(ptr noundef nonnull align 8 dereferenceable(4983) %11)
  br i1 %12, label %16, label %13

13:                                               ; preds = %10
  %14 = load ptr, ptr %5, align 8
  %15 = call noundef ptr @_ZNK11RegisterMap6threadEv(ptr noundef nonnull align 8 dereferenceable(4983) %14)
  call void @_ZN17StackWatermarkSet12on_iterationEP10JavaThreadRK5frame(ptr noundef %15, ptr noundef nonnull align 8 dereferenceable(56) %0)
  br label %16

16:                                               ; preds = %13, %10, %3
  ret void
}

; Function Attrs: mustprogress nounwind uwtable
define linkonce_odr hidden noundef zeroext i1 @_ZNK5frame14is_first_frameEv(ptr noundef nonnull align 8 dereferenceable(56) %0) #1 comdat align 2 {
  %2 = alloca ptr, align 8
  store ptr %0, ptr %2, align 8
  %3 = load ptr, ptr %2, align 8
  %4 = call noundef zeroext i1 @_ZNK5frame14is_entry_frameEv(ptr noundef nonnull align 8 dereferenceable(56) %3)
  br i1 %4, label %5, label %7

5:                                                ; preds = %1
  %6 = call noundef zeroext i1 @_ZNK5frame20entry_frame_is_firstEv(ptr noundef nonnull align 8 dereferenceable(56) %3)
  br i1 %6, label %13, label %7

7:                                                ; preds = %5, %1
  %8 = call noundef zeroext i1 @_ZNK5frame20is_upcall_stub_frameEv(ptr noundef nonnull align 8 dereferenceable(56) %3)
  br i1 %8, label %9, label %11

9:                                                ; preds = %7
  %10 = call noundef zeroext i1 @_ZNK5frame26upcall_stub_frame_is_firstEv(ptr noundef nonnull align 8 dereferenceable(56) %3)
  br label %11

11:                                               ; preds = %9, %7
  %12 = phi i1 [ false, %7 ], [ %10, %9 ]
  br label %13

13:                                               ; preds = %11, %5
  %14 = phi i1 [ true, %5 ], [ %12, %11 ]
  ret i1 %14
}

; Function Attrs: mustprogress nounwind uwtable
define linkonce_odr hidden noundef zeroext i1 @_ZNK15JavaFrameAnchor19has_last_Java_frameEv(ptr noundef nonnull align 8 dereferenceable(24) %0) #1 comdat align 2 {
  %2 = alloca ptr, align 8
  store ptr %0, ptr %2, align 8
  %3 = load ptr, ptr %2, align 8
  %4 = getelementptr inbounds %class.JavaFrameAnchor, ptr %3, i32 0, i32 0
  %5 = load volatile ptr, ptr %4, align 8
  %6 = icmp ne ptr %5, null
  ret i1 %6
}

; Function Attrs: mustprogress nounwind uwtable
define linkonce_odr hidden void @_ZN16StackFrameStream4nextEv(ptr noundef nonnull align 8 dereferenceable(5041) %0) #1 comdat align 2 {
  %2 = alloca ptr, align 8
  %3 = alloca %class.frame, align 8
  store ptr %0, ptr %2, align 8
  %4 = load ptr, ptr %2, align 8
  %5 = getelementptr inbounds %class.StackFrameStream, ptr %4, i32 0, i32 2
  %6 = load i8, ptr %5, align 8
  %7 = trunc i8 %6 to i1
  br i1 %7, label %12, label %8

8:                                                ; preds = %1
  %9 = getelementptr inbounds %class.StackFrameStream, ptr %4, i32 0, i32 0
  %10 = getelementptr inbounds %class.StackFrameStream, ptr %4, i32 0, i32 1
  call void @_ZNK5frame6senderEP11RegisterMap(ptr dead_on_unwind writable sret(%class.frame) align 8 %3, ptr noundef nonnull align 8 dereferenceable(56) %9, ptr noundef %10)
  %11 = getelementptr inbounds %class.StackFrameStream, ptr %4, i32 0, i32 0
  call void @llvm.memcpy.p0.p0.i64(ptr align 8 %11, ptr align 8 %3, i64 56, i1 false)
  br label %12

12:                                               ; preds = %8, %1
  ret void
}

; Function Attrs: mustprogress nounwind uwtable
define linkonce_odr hidden noundef ptr @_ZN16StackFrameStream12register_mapEv(ptr noundef nonnull align 8 dereferenceable(5041) %0) #1 comdat align 2 {
  %2 = alloca ptr, align 8
  store ptr %0, ptr %2, align 8
  %3 = load ptr, ptr %2, align 8
  %4 = getelementptr inbounds %class.StackFrameStream, ptr %3, i32 0, i32 1
  ret ptr %4
}

; Function Attrs: mustprogress nounwind uwtable
define linkonce_odr hidden noundef ptr @_ZN16StackFrameStream7currentEv(ptr noundef nonnull align 8 dereferenceable(5041) %0) #1 comdat align 2 {
  %2 = alloca ptr, align 8
  store ptr %0, ptr %2, align 8
  %3 = load ptr, ptr %2, align 8
  %4 = getelementptr inbounds %class.StackFrameStream, ptr %3, i32 0, i32 0
  ret ptr %4
}

; Function Attrs: mustprogress nounwind uwtable
define linkonce_odr hidden noundef zeroext i1 @_ZN16StackFrameStream7is_doneEv(ptr noundef nonnull align 8 dereferenceable(5041) %0) #1 comdat align 2 {
  %2 = alloca ptr, align 8
  store ptr %0, ptr %2, align 8
  %3 = load ptr, ptr %2, align 8
  %4 = getelementptr inbounds %class.StackFrameStream, ptr %3, i32 0, i32 2
  %5 = load i8, ptr %4, align 8
  %6 = trunc i8 %5 to i1
  br i1 %6, label %7, label %8

7:                                                ; preds = %1
  br label %13

8:                                                ; preds = %1
  %9 = getelementptr inbounds %class.StackFrameStream, ptr %3, i32 0, i32 0
  %10 = call noundef zeroext i1 @_ZNK5frame14is_first_frameEv(ptr noundef nonnull align 8 dereferenceable(56) %9)
  %11 = getelementptr inbounds %class.StackFrameStream, ptr %3, i32 0, i32 2
  %12 = zext i1 %10 to i8
  store i8 %12, ptr %11, align 8
  br label %13

13:                                               ; preds = %8, %7
  %14 = phi i1 [ true, %7 ], [ false, %8 ]
  ret i1 %14
}

; Function Attrs: mustprogress nounwind uwtable
define linkonce_odr hidden noundef zeroext i1 @_ZNK10JavaThread19has_last_Java_frameEv(ptr noundef nonnull align 8 dereferenceable(1800) %0) #1 comdat align 2 {
  %2 = alloca ptr, align 8
  store ptr %0, ptr %2, align 8
  %3 = load ptr, ptr %2, align 8
  %4 = getelementptr inbounds %class.JavaThread, ptr %3, i32 0, i32 6
  %5 = call noundef zeroext i1 @_ZNK15JavaFrameAnchor19has_last_Java_frameEv(ptr noundef nonnull align 8 dereferenceable(24) %4)
  ret i1 %5
}

; Function Attrs: mustprogress nounwind uwtable
define hidden void @_ZN10JavaThread9frames_doEPFvP5framePK11RegisterMapE(ptr noundef nonnull align 8 dereferenceable(1800) %0, ptr noundef %1) #1 align 2 {
  %3 = alloca ptr, align 8
  %4 = alloca ptr, align 8
  %5 = alloca %class.StackFrameStream, align 8
  %6 = alloca ptr, align 8
  store ptr %0, ptr %3, align 8
  store ptr %1, ptr %4, align 8
  %7 = load ptr, ptr %3, align 8
  %8 = call noundef zeroext i1 @_ZNK10JavaThread19has_last_Java_frameEv(ptr noundef nonnull align 8 dereferenceable(1800) %7)
  br i1 %8, label %10, label %9

9:                                                ; preds = %2
  br label %20

10:                                               ; preds = %2
  call void @_ZN16StackFrameStreamC1EP10JavaThreadbbb(ptr noundef nonnull align 8 dereferenceable(5041) %5, ptr noundef %7, i1 noundef zeroext true, i1 noundef zeroext true, i1 noundef zeroext false)
  br label %11

11:                                               ; preds = %19, %10
  %12 = call noundef zeroext i1 @_ZN16StackFrameStream7is_doneEv(ptr noundef nonnull align 8 dereferenceable(5041) %5)
  %13 = xor i1 %12, true
  br i1 %13, label %14, label %20

14:                                               ; preds = %11
  %15 = call noundef ptr @_ZN16StackFrameStream7currentEv(ptr noundef nonnull align 8 dereferenceable(5041) %5)
  store ptr %15, ptr %6, align 8
  %16 = load ptr, ptr %4, align 8
  %17 = load ptr, ptr %6, align 8
  %18 = call noundef ptr @_ZN16StackFrameStream12register_mapEv(ptr noundef nonnull align 8 dereferenceable(5041) %5)
  call void %16(ptr noundef %17, ptr noundef %18)
  br label %19

19:                                               ; preds = %14
  call void @_ZN16StackFrameStream4nextEv(ptr noundef nonnull align 8 dereferenceable(5041) %5)
  br label %11, !llvm.loop !24

20:                                               ; preds = %11, %9
  ret void
}