; Function Attrs: mustprogress nounwind uwtable
define hidden void @_ZN10JavaThread9frames_doEPFvP5framePK11RegisterMapE(ptr noundef nonnull align 8 dereferenceable(1800) %0, ptr nocapture noundef readonly %1) local_unnamed_addr #0 align 2 {
  %3 = alloca %class.frame, align 8
  %4 = alloca %class.StackFrameStream, align 8
  %5 = getelementptr inbounds i8, ptr %0, i64 928
  %6 = load volatile ptr, ptr %5, align 8
  %.not = icmp eq ptr %6, null
  br i1 %.not, label %_ZN16StackFrameStream7is_doneEv.exit.thread, label %7

7:                                                ; preds = %2
  call void @_ZN16StackFrameStreamC1EP10JavaThreadbbb(ptr noundef nonnull align 8 dereferenceable(5041) %4, ptr noundef nonnull %0, i1 noundef zeroext true, i1 noundef zeroext true, i1 noundef zeroext false) #21
  %8 = getelementptr inbounds i8, ptr %4, i64 5040
  %9 = load i8, ptr %8, align 8
  %10 = trunc i8 %9 to i1
  br i1 %10, label %_ZN16StackFrameStream7is_doneEv.exit.thread, label %.lr.ph

.lr.ph:                                           ; preds = %7
  %11 = getelementptr inbounds i8, ptr %4, i64 8
  %12 = getelementptr inbounds i8, ptr %4, i64 16
  %13 = getelementptr inbounds i8, ptr %4, i64 56
  %14 = getelementptr inbounds i8, ptr %4, i64 5037
  %15 = getelementptr inbounds i8, ptr %4, i64 5024
  %16 = getelementptr inbounds i8, ptr %4, i64 5016
  br label %17

17:                                               ; preds = %.lr.ph, %_ZN16StackFrameStream4nextEv.exit
  %18 = load ptr, ptr %11, align 8
  %19 = load ptr, ptr @_ZN12StubRoutines25_call_stub_return_addressE, align 8
  %20 = icmp eq ptr %19, %18
  br i1 %20, label %21, label %23

21:                                               ; preds = %17
  %22 = call noundef zeroext i1 @_ZNK5frame20entry_frame_is_firstEv(ptr noundef nonnull align 8 dereferenceable(56) %4) #21
  br i1 %22, label %31, label %23

23:                                               ; preds = %21, %17
  %24 = load ptr, ptr %12, align 8
  %.not.i.i.i = icmp eq ptr %24, null
  br i1 %.not.i.i.i, label %31, label %_ZNK5frame20is_upcall_stub_frameEv.exit.i.i

_ZNK5frame20is_upcall_stub_frameEv.exit.i.i:      ; preds = %23
  %25 = getelementptr inbounds i8, ptr %24, i64 52
  %26 = load i8, ptr %25, align 4
  %27 = icmp eq i8 %26, 11
  br i1 %27, label %28, label %31

28:                                               ; preds = %_ZNK5frame20is_upcall_stub_frameEv.exit.i.i
  %29 = call noundef zeroext i1 @_ZNK5frame26upcall_stub_frame_is_firstEv(ptr noundef nonnull align 8 dereferenceable(56) %4) #21
  %30 = zext i1 %29 to i8
  br label %31

31:                                               ; preds = %28, %_ZNK5frame20is_upcall_stub_frameEv.exit.i.i, %23, %21
  %32 = phi i8 [ 1, %21 ], [ 0, %_ZNK5frame20is_upcall_stub_frameEv.exit.i.i ], [ %30, %28 ], [ 0, %23 ]
  store i8 %32, ptr %8, align 8
  call void %1(ptr noundef nonnull %4, ptr noundef nonnull %13) #21
  call void @llvm.lifetime.start.p0(i64 56, ptr nonnull %3)
  %33 = load i8, ptr %8, align 8
  %34 = trunc i8 %33 to i1
  br i1 %34, label %_ZN16StackFrameStream4nextEv.exit, label %35

35:                                               ; preds = %31
  call void @_ZNK5frame10sender_rawEP11RegisterMap(ptr dead_on_unwind nonnull writable sret(%class.frame) align 8 %3, ptr noundef nonnull align 8 dereferenceable(56) %4, ptr noundef nonnull %13)
  %36 = load i8, ptr %14, align 1, !noalias !51
  %37 = trunc i8 %36 to i1
  br i1 %37, label %38, label %_ZNK5frame6senderEP11RegisterMap.exit.i

38:                                               ; preds = %35
  %39 = load ptr, ptr %15, align 8, !noalias !51
  %40 = icmp eq ptr %39, null
  br i1 %40, label %_ZNK11RegisterMap7in_contEv.exit.thread.i.i, label %_ZNK11RegisterMap7in_contEv.exit.i.i

_ZNK11RegisterMap7in_contEv.exit.i.i:             ; preds = %38
  %41 = load ptr, ptr %39, align 8
  %.not.i.i = icmp eq ptr %41, null
  br i1 %.not.i.i, label %_ZNK11RegisterMap7in_contEv.exit.thread.i.i, label %_ZNK5frame6senderEP11RegisterMap.exit.i

_ZNK11RegisterMap7in_contEv.exit.thread.i.i:      ; preds = %_ZNK11RegisterMap7in_contEv.exit.i.i, %38
  %42 = load ptr, ptr %16, align 8, !noalias !51
  call void @_ZN17StackWatermarkSet12on_iterationEP10JavaThreadRK5frame(ptr noundef %42, ptr noundef nonnull align 8 dereferenceable(56) %3) #21
  br label %_ZNK5frame6senderEP11RegisterMap.exit.i

_ZNK5frame6senderEP11RegisterMap.exit.i:          ; preds = %_ZNK11RegisterMap7in_contEv.exit.thread.i.i, %_ZNK11RegisterMap7in_contEv.exit.i.i, %35
  call void @llvm.memcpy.p0.p0.i64(ptr noundef nonnull align 8 dereferenceable(56) %4, ptr noundef nonnull align 8 dereferenceable(56) %3, i64 56, i1 false)
  %.pre = load i8, ptr %8, align 8
  br label %_ZN16StackFrameStream4nextEv.exit

_ZN16StackFrameStream4nextEv.exit:                ; preds = %31, %_ZNK5frame6senderEP11RegisterMap.exit.i
  %43 = phi i8 [ %33, %31 ], [ %.pre, %_ZNK5frame6senderEP11RegisterMap.exit.i ]
  call void @llvm.lifetime.end.p0(i64 56, ptr nonnull %3)
  %44 = trunc i8 %43 to i1
  br i1 %44, label %_ZN16StackFrameStream7is_doneEv.exit.thread, label %17, !llvm.loop !54

_ZN16StackFrameStream7is_doneEv.exit.thread:      ; preds = %_ZN16StackFrameStream4nextEv.exit, %7, %2
  ret void
}